; Function Attrs: nounwind uwtable
define i32 @BIO_write(ptr noundef %0, ptr noundef %1, i32 noundef %2) local_unnamed_addr #0 {
  %4 = alloca i64, align 8
  call void @llvm.lifetime.start.p0(i64 8, ptr nonnull %4) #14
  %5 = icmp slt i32 %2, 1
  br i1 %5, label %12, label %6

6:                                                ; preds = %3
  %7 = zext nneg i32 %2 to i64
  %8 = call fastcc i32 @bio_write_intern(ptr noundef %0, ptr noundef %1, i64 noundef %7, ptr noundef nonnull %4)
  %9 = icmp sgt i32 %8, 0
  %10 = load i64, ptr %4, align 8
  %11 = trunc i64 %10 to i32
  %.0 = select i1 %9, i32 %11, i32 %8
  br label %12

12:                                               ; preds = %3, %6
  %.06 = phi i32 [ %.0, %6 ], [ 0, %3 ]
  call void @llvm.lifetime.end.p0(i64 8, ptr nonnull %4) #14
  ret i32 %.06
}